Certificate:
    Data:
        Version: 3 (0x2)
        Serial Number: 1 (0x1)
        Signature Algorithm: sha256WithRSAEncryption
        Issuer: C=FR, ST=Radius, L=Somewhere, O=Example Inc./emailAddress=admin@example.org, CN=Example Certificate Authority
        Validity
            Not Before: Sep  9 04:46:14 2023 GMT
            Not After : Sep  8 04:46:14 2033 GMT
        Subject: C=FR, ST=Radius, O=Example Inc., CN=Example Server Certificate/emailAddress=admin@example.org
        Subject Public Key Info:
            Public Key Algorithm: rsaEncryption
                Public-Key: (2048 bit)
                Modulus:
                    00:9f:8a:85:d3:56:29:aa:39:4f:c6:02:91:11:62:
                    f7:06:87:dc:a9:45:1d:8b:33:db:7c:60:da:ec:65:
                    d1:a6:7e:fa:0e:82:48:7c:75:d2:fa:00:c3:9d:a3:
                    ff:d3:6a:05:9d:43:e7:75:9b:15:bb:2e:db:a5:6e:
                    0d:4c:10:ec:aa:b2:c2:9a:b9:97:c7:27:21:50:9a:
                    45:92:e4:76:57:aa:39:37:63:27:a0:88:40:13:19:
                    9e:44:ad:e1:27:a6:ab:df:d9:b3:7f:cf:ad:64:31:
                    fe:0b:3a:67:80:9e:44:8d:2a:1e:11:9d:77:fc:ba:
                    4b:61:83:c5:cd:16:72:6f:44:bd:fa:7a:2f:0f:b6:
                    6a:1d:a6:26:f9:2a:0b:38:3a:8f:6c:ca:c3:15:40:
                    38:7e:b1:0a:53:69:b8:1d:c5:ed:4f:46:2d:e3:58:
                    83:d6:f8:a0:82:71:7a:e4:7f:26:ea:11:56:4f:8f:
                    13:01:c9:51:54:83:9b:9b:3f:65:18:70:66:21:a9:
                    ff:cb:1c:e4:58:79:8c:2b:66:60:7c:93:0a:11:fb:
                    2f:ad:27:4f:a2:e2:b0:54:d3:c7:da:d2:a7:b4:32:
                    cb:ba:b4:19:b5:39:d5:21:fe:0f:78:c0:82:f0:78:
                    2b:f0:c0:b1:71:c6:13:69:d6:c8:89:bd:1c:ca:a4:
                    11:c9
                Exponent: 65537 (0x10001)
        X509v3 extensions:
            X509v3 Extended Key Usage: 
                TLS Web Server Authentication
            X509v3 CRL Distribution Points: 
                Full Name:
                  URI:http://www.example.com/example_ca.crl
            X509v3 Certificate Policies: 
                Policy: 1.3.6.1.4.1.40808.1.3.2
            X509v3 Subject Key Identifier: 
                4F:15:D6:7D:6C:33:20:80:FD:24:20:B4:F4:BC:57:44:EB:92:E9:20
            X509v3 Authority Key Identifier: 
                3B:AF:87:CC:B5:29:5D:1C:2C:03:0E:90:8D:57:CC:03:E3:72:57:14
    Signature Algorithm: sha256WithRSAEncryption
    Signature Value:
        93:88:79:33:ad:05:04:81:97:84:68:2b:61:49:06:38:74:01:
        f2:0a:70:4d:e6:49:7a:7c:bd:ce:30:1c:f8:d8:8b:18:1b:39:
        75:94:7f:43:a7:e9:c7:b2:69:ee:14:c2:8c:2b:ff:2c:15:87:
        22:0f:6e:20:fa:62:4f:20:28:df:65:72:7d:93:79:78:5b:c8:
        82:e3:f3:21:ac:9b:b9:a2:df:65:57:e6:da:2d:ee:01:fc:f0:
        ea:45:9f:e9:65:ef:e8:79:73:46:76:3c:f9:d6:36:3a:87:64:
        93:75:3c:37:58:17:fe:06:b6:1b:a9:8c:65:55:0f:68:8d:a4:
        9e:f9:98:0c:25:a7:ad:3e:40:89:8d:71:ff:e2:09:9c:e1:fc:
        e8:db:45:71:60:bf:58:94:85:07:19:4f:4d:88:23:21:4a:85:
        73:d6:78:ff:4f:e0:d9:4b:1f:f0:c7:69:af:17:dd:ad:ad:77:
        78:9d:a2:1b:38:41:b7:6d:29:95:fb:c1:83:c0:e1:0b:e8:a9:
        b3:32:bb:d9:76:2b:8f:f5:24:c8:9e:81:1e:65:ec:28:4e:4b:
        a9:be:de:74:8f:4d:0b:0f:32:fc:dd:e8:6a:b5:d6:57:ca:f1:
        91:43:3c:55:4e:bd:b2:ae:ab:d8:bf:5b:42:2b:c4:3e:c9:c1:
        b7:31:4d:4a
-----BEGIN CERTIFICATE-----
MIIENjCCAx6gAwIBAgIBATANBgkqhkiG9w0BAQsFADCBkzELMAkGA1UEBhMCRlIx
DzANBgNVBAgMBlJhZGl1czESMBAGA1UEBwwJU29tZXdoZXJlMRUwEwYDVQQKDAxF
eGFtcGxlIEluYy4xIDAeBgkqhkiG9w0BCQEWEWFkbWluQGV4YW1wbGUub3JnMSYw
JAYDVQQDDB1FeGFtcGxlIENlcnRpZmljYXRlIEF1dGhvcml0eTAeFw0yMzA5MDkw
NDQ2MTRaFw0zMzA5MDgwNDQ2MTRaMHwxCzAJBgNVBAYTAkZSMQ8wDQYDVQQIDAZS
YWRpdXMxFTATBgNVBAoMDEV4YW1wbGUgSW5jLjEjMCEGA1UEAwwaRXhhbXBsZSBT
ZXJ2ZXIgQ2VydGlmaWNhdGUxIDAeBgkqhkiG9w0BCQEWEWFkbWluQGV4YW1wbGUu
b3JnMIIBIjANBgkqhkiG9w0BAQEFAAOCAQ8AMIIBCgKCAQEAn4qF01YpqjlPxgKR
EWL3BofcqUUdizPbfGDa7GXRpn76DoJIfHXS+gDDnaP/02oFnUPndZsVuy7bpW4N
TBDsqrLCmrmXxychUJpFkuR2V6o5N2MnoIhAExmeRK3hJ6ar39mzf8+tZDH+Czpn
gJ5EjSoeEZ13/LpLYYPFzRZyb0S9+novD7ZqHaYm+SoLODqPbMrDFUA4frEKU2m4
HcXtT0Yt41iD1viggnF65H8m6hFWT48TAclRVIObmz9lGHBmIan/yxzkWHmMK2Zg
fJMKEfsvrSdPouKwVNPH2tKntDLLurQZtTnVIf4PeMCC8Hgr8MCxccYTadbIib0c
yqQRyQIDAQABo4GqMIGnMBMGA1UdJQQMMAoGCCsGAQUFBwMBMDYGA1UdHwQvMC0w
K6ApoCeGJWh0dHA6Ly93d3cuZXhhbXBsZS5jb20vZXhhbXBsZV9jYS5jcmwwGAYD
VR0gBBEwDzANBgsrBgEEAYK+aAEDAjAdBgNVHQ4EFgQUTxXWfWwzIID9JCC09LxX
ROuS6SAwHwYDVR0jBBgwFoAUO6+HzLUpXRwsAw6QjVfMA+NyVxQwDQYJKoZIhvcN
AQELBQADggEBAJOIeTOtBQSBl4RoK2FJBjh0AfIKcE3mSXp8vc4wHPjYixgbOXWU
f0On6ceyae4Uwowr/ywVhyIPbiD6Yk8gKN9lcn2TeXhbyILj8yGsm7mi32VX5tot
7gH88OpFn+ll7+h5c0Z2PPnWNjqHZJN1PDdYF/4GthupjGVVD2iNpJ75mAwlp60+
QImNcf/iCZzh/OjbRXFgv1iUhQcZT02IIyFKhXPWeP9P4NlLH/DHaa8X3a2td3id
ohs4QbdtKZX7wYPA4QvoqbMyu9l2K4/1JMiegR5l7ChOS6m+3nSPTQsPMvzd6Gq1
1lfK8ZFDPFVOvbKuq9i/W0IrxD7JwbcxTUo=
-----END CERTIFICATE-----
