Certificate:
    Data:
        Version: 3 (0x2)
        Serial Number: 2 (0x2)
        Signature Algorithm: sha256WithRSAEncryption
        Issuer: C=FR, ST=Radius, L=Somewhere, O=Example Inc./emailAddress=admin@example.org, CN=Example Certificate Authority
        Validity
            Not Before: Sep  9 04:46:14 2023 GMT
            Not After : Sep  8 04:46:14 2033 GMT
        Subject: C=FR, ST=Radius, O=Example Inc., CN=user@example.org/emailAddress=user@example.org
        Subject Public Key Info:
            Public Key Algorithm: rsaEncryption
                Public-Key: (2048 bit)
                Modulus:
                    00:c2:29:58:dc:30:d3:cc:8c:df:03:37:0b:ec:91:
                    3a:58:a3:55:ba:9d:f9:5d:de:e9:89:88:d7:92:f6:
                    aa:dd:9d:e8:e4:b7:40:92:5d:6b:e0:c3:86:97:9f:
                    8c:7a:1c:6a:21:7c:06:e8:f5:65:c2:e2:5c:e1:b6:
                    c3:f1:ec:72:64:d1:25:11:45:7d:f1:7c:48:13:5a:
                    ae:b5:03:27:20:47:74:8f:fb:07:6b:95:7b:f1:13:
                    21:0c:4e:b2:b9:f0:bd:91:55:12:9d:f2:64:6b:90:
                    b0:71:35:40:57:1d:17:bc:bd:37:24:de:de:14:dd:
                    a7:db:9b:ba:cf:a2:58:4e:f8:89:fc:83:66:04:9f:
                    3c:56:05:90:53:c7:cd:8b:43:4d:e7:fc:14:85:3b:
                    5d:d9:da:f4:2a:17:6b:2f:cb:0e:f4:72:02:fe:84:
                    05:00:ef:6a:5c:c7:b2:8c:17:e5:76:91:5b:0e:1b:
                    14:3f:fe:2d:4a:89:5d:26:27:a5:f6:f9:51:29:dc:
                    6a:98:64:86:27:43:15:6f:30:d6:84:4a:1d:61:da:
                    65:1b:fa:9b:4c:35:ad:b4:da:6c:c8:6a:96:7f:c6:
                    54:0e:f2:09:79:ac:ab:cf:2d:a2:40:79:6e:a7:a6:
                    4c:b2:06:e1:09:7e:52:1a:ec:19:70:78:76:6d:59:
                    11:cd
                Exponent: 65537 (0x10001)
        X509v3 extensions:
            X509v3 Extended Key Usage: 
                TLS Web Client Authentication
            X509v3 CRL Distribution Points: 
                Full Name:
                  URI:http://www.example.com/example_ca.crl
            X509v3 Subject Key Identifier: 
                7A:2E:98:A6:21:74:C2:89:86:3B:11:E1:D7:76:5E:9D:99:D8:EA:57
            X509v3 Authority Key Identifier: 
                3B:AF:87:CC:B5:29:5D:1C:2C:03:0E:90:8D:57:CC:03:E3:72:57:14
    Signature Algorithm: sha256WithRSAEncryption
    Signature Value:
        26:6f:27:dd:aa:25:9c:3d:58:9b:e8:ae:bc:be:9f:cd:42:23:
        60:02:ca:7f:2c:40:d7:bb:b0:bd:d7:cc:44:7c:61:f9:3c:6d:
        06:1f:6a:b7:3c:6e:bc:24:b1:36:c0:f7:21:75:69:1f:89:0e:
        e1:b4:d0:a6:0f:f3:d5:32:6c:ae:f5:72:d1:92:c4:17:c5:39:
        82:35:ad:df:1a:5c:ca:b1:09:87:5a:28:50:30:4a:cc:14:90:
        1a:28:0e:df:65:7c:85:4e:e8:9c:e4:83:0c:8b:4f:dc:fc:68:
        93:65:8a:b7:81:63:8a:70:1d:75:23:af:1c:9b:74:8b:fc:eb:
        e4:2f:d7:23:1b:81:cf:90:cb:40:09:37:7c:ab:65:7b:d8:62:
        23:35:75:50:6b:08:0b:bf:c0:63:86:4c:b0:3c:68:6e:cc:d1:
        a2:57:00:09:69:85:a4:78:87:5f:60:4c:64:ef:b5:bb:d3:4e:
        b6:cb:84:98:1b:db:74:67:9f:f6:57:2e:d6:fa:47:c1:cc:a7:
        30:6a:de:e6:11:44:ec:08:e6:42:2c:8b:65:96:8f:71:5c:a8:
        e5:c0:20:a5:bd:24:07:60:d0:b3:95:68:1e:eb:00:b3:60:52:
        d6:d6:97:8a:37:bb:ed:d8:07:ad:65:5d:de:ed:e0:61:f0:8a:
        2c:8b:84:96
-----BEGIN CERTIFICATE-----
MIIEETCCAvmgAwIBAgIBAjANBgkqhkiG9w0BAQsFADCBkzELMAkGA1UEBhMCRlIx
DzANBgNVBAgMBlJhZGl1czESMBAGA1UEBwwJU29tZXdoZXJlMRUwEwYDVQQKDAxF
eGFtcGxlIEluYy4xIDAeBgkqhkiG9w0BCQEWEWFkbWluQGV4YW1wbGUub3JnMSYw
JAYDVQQDDB1FeGFtcGxlIENlcnRpZmljYXRlIEF1dGhvcml0eTAeFw0yMzA5MDkw
NDQ2MTRaFw0zMzA5MDgwNDQ2MTRaMHExCzAJBgNVBAYTAkZSMQ8wDQYDVQQIDAZS
YWRpdXMxFTATBgNVBAoMDEV4YW1wbGUgSW5jLjEZMBcGA1UEAwwQdXNlckBleGFt
cGxlLm9yZzEfMB0GCSqGSIb3DQEJARYQdXNlckBleGFtcGxlLm9yZzCCASIwDQYJ
KoZIhvcNAQEBBQADggEPADCCAQoCggEBAMIpWNww08yM3wM3C+yROlijVbqd+V3e
6YmI15L2qt2d6OS3QJJda+DDhpefjHocaiF8Buj1ZcLiXOG2w/HscmTRJRFFffF8
SBNarrUDJyBHdI/7B2uVe/ETIQxOsrnwvZFVEp3yZGuQsHE1QFcdF7y9NyTe3hTd
p9ubus+iWE74ifyDZgSfPFYFkFPHzYtDTef8FIU7Xdna9CoXay/LDvRyAv6EBQDv
alzHsowX5XaRWw4bFD/+LUqJXSYnpfb5USncaphkhidDFW8w1oRKHWHaZRv6m0w1
rbTabMhqln/GVA7yCXmsq88tokB5bqemTLIG4Ql+UhrsGXB4dm1ZEc0CAwEAAaOB
kDCBjTATBgNVHSUEDDAKBggrBgEFBQcDAjA2BgNVHR8ELzAtMCugKaAnhiVodHRw
Oi8vd3d3LmV4YW1wbGUuY29tL2V4YW1wbGVfY2EuY3JsMB0GA1UdDgQWBBR6Lpim
IXTCiYY7EeHXdl6dmdjqVzAfBgNVHSMEGDAWgBQ7r4fMtSldHCwDDpCNV8wD43JX
FDANBgkqhkiG9w0BAQsFAAOCAQEAJm8n3aolnD1Ym+iuvL6fzUIjYALKfyxA17uw
vdfMRHxh+TxtBh9qtzxuvCSxNsD3IXVpH4kO4bTQpg/z1TJsrvVy0ZLEF8U5gjWt
3xpcyrEJh1ooUDBKzBSQGigO32V8hU7onOSDDItP3Pxok2WKt4FjinAddSOvHJt0
i/zr5C/XIxuBz5DLQAk3fKtle9hiIzV1UGsIC7/AY4ZMsDxobszRolcACWmFpHiH
X2BMZO+1u9NOtsuEmBvbdGef9lcu1vpHwcynMGre5hFE7AjmQiyLZZaPcVyo5cAg
pb0kB2DQs5VoHusAs2BS1taXije77dgHrWVd3u3gYfCKLIuElg==
-----END CERTIFICATE-----
